Certificate:
    Data:
        Version: 3 (0x2)
        Serial Number: 0 (0x0)
    Signature Algorithm: md5WithRSAEncryption
        Issuer: C=RO, ST=Bucharest, L=Bucharest, O=N E T O P I A , OU=N E T O P I A Development Team, CN=mobilpay.ro/emailAddress=support@mobilpay.ro
        Validity
            Not Before: Mar 11 08:00:51 2021 GMT
            Not After : Mar 11 08:00:51 2022 GMT
        Subject: C=RO, ST=Bucharest, L=Bucharest, O=N E T O P I A , OU=N E T O P I A Development Team, CN=mobilpay.ro/emailAddress=support@mobilpay.ro
        Subject Public Key Info:
            Public Key Algorithm: rsaEncryption
                Public-Key: (1024 bit)
                Modulus:
                    00:bc:21:d3:f3:61:12:96:45:b8:ab:e0:85:9f:4d:
                    ef:90:97:6d:ad:39:31:63:42:87:8d:b6:91:c7:c5:
                    29:ba:8f:e5:85:62:09:40:60:dc:c7:39:65:87:75:
                    7b:45:e2:f5:48:b5:40:8d:99:fe:3b:ef:72:1a:c3:
                    64:64:30:8d:aa:c0:a6:bd:d2:f5:ba:30:1c:49:19:
                    1f:cd:59:a2:53:a8:3c:70:59:6d:8a:40:db:c0:48:
                    c8:76:11:71:a4:d7:8c:bb:62:04:6b:e3:a7:0b:b3:
                    96:39:97:78:1a:15:2e:29:c8:68:4d:08:52:93:1e:
                    9f:d3:0b:58:6d:9f:18:c7:5d
                Exponent: 65537 (0x10001)
        X509v3 extensions:
            X509v3 Subject Key Identifier: 
                3D:C9:70:A1:30:6C:73:53:34:1F:96:69:17:4F:5A:32:20:1A:1E:B5
            X509v3 Authority Key Identifier: 
                keyid:3D:C9:70:A1:30:6C:73:53:34:1F:96:69:17:4F:5A:32:20:1A:1E:B5

            X509v3 Basic Constraints: 
                CA:TRUE
    Signature Algorithm: md5WithRSAEncryption
         50:6f:a5:55:5e:4a:64:3c:79:a6:50:63:53:79:65:e7:81:60:
         cf:ab:ab:1e:82:7b:2c:39:8e:b7:f3:c8:24:8e:58:d9:a1:36:
         0f:31:a3:d5:97:5e:50:33:5f:8b:38:14:d0:59:17:80:20:49:
         1b:10:7d:30:b3:2d:02:09:2d:21:06:d9:51:7c:5e:8d:e7:1f:
         6f:39:4c:65:30:c1:bb:db:e7:7c:4f:2b:0c:29:d8:f1:99:46:
         0a:28:65:af:8b:c2:67:f3:bf:5d:42:da:28:50:da:d1:9c:0d:
         35:1c:fc:ea:63:28:c2:30:c8:2d:06:ec:09:51:a0:d2:c6:0b:
         4c:34
-----BEGIN CERTIFICATE-----
MIIDKjCCApOgAwIBAgIBADANBgkqhkiG9w0BAQQFADCBsTELMAkGA1UEBhMCUk8x
EjAQBgNVBAgMCUJ1Y2hhcmVzdDESMBAGA1UEBwwJQnVjaGFyZXN0MRcwFQYDVQQK
DA5OIEUgVCBPIFAgSSBBIDEnMCUGA1UECwweTiBFIFQgTyBQIEkgQSBEZXZlbG9w
bWVudCBUZWFtMRQwEgYDVQQDDAttb2JpbHBheS5ybzEiMCAGCSqGSIb3DQEJARYT
c3VwcG9ydEBtb2JpbHBheS5ybzAeFw0yMTAzMTEwODAwNTFaFw0yMjAzMTEwODAw
NTFaMIGxMQswCQYDVQQGEwJSTzESMBAGA1UECAwJQnVjaGFyZXN0MRIwEAYDVQQH
DAlCdWNoYXJlc3QxFzAVBgNVBAoMDk4gRSBUIE8gUCBJIEEgMScwJQYDVQQLDB5O
IEUgVCBPIFAgSSBBIERldmVsb3BtZW50IFRlYW0xFDASBgNVBAMMC21vYmlscGF5
LnJvMSIwIAYJKoZIhvcNAQkBFhNzdXBwb3J0QG1vYmlscGF5LnJvMIGfMA0GCSqG
SIb3DQEBAQUAA4GNADCBiQKBgQC8IdPzYRKWRbir4IWfTe+Ql22tOTFjQoeNtpHH
xSm6j+WFYglAYNzHOWWHdXtF4vVItUCNmf4773Iaw2RkMI2qwKa90vW6MBxJGR/N
WaJTqDxwWW2KQNvASMh2EXGk14y7YgRr46cLs5Y5l3gaFS4pyGhNCFKTHp/TC1ht
nxjHXQIDAQABo1AwTjAdBgNVHQ4EFgQUPclwoTBsc1M0H5ZpF09aMiAaHrUwHwYD
VR0jBBgwFoAUPclwoTBsc1M0H5ZpF09aMiAaHrUwDAYDVR0TBAUwAwEB/zANBgkq
hkiG9w0BAQQFAAOBgQBQb6VVXkpkPHmmUGNTeWXngWDPq6segnssOY6388gkjljZ
oTYPMaPVl15QM1+LOBTQWReAIEkbEH0wsy0CCS0hBtlRfF6N5x9vOUxlMMG72+d8
TysMKdjxmUYKKGWvi8Jn879dQtooUNrRnA01HPzqYyjCMMgtBuwJUaDSxgtMNA==
-----END CERTIFICATE-----
